target datalayout = "e-m:e-p270:32:32-p271:32:32-p272:64:64-i64:64-i128:128-f80:128-n8:16:32:64-S128"
target triple = "x86_64-pc-linux-gnu"

@last_error_msg = internal global ptr null, align 8
@.str = private unnamed_addr constant [43 x i8] c"invalid argument: file name cannot be null\00", align 1
@.str.1 = private unnamed_addr constant [44 x i8] c"invalid argument: file name cannot be empty\00", align 1
@.str.2 = private unnamed_addr constant [75 x i8] c"invalid argument: file name is too long (%d, maximum allowed length is %d)\00", align 1
@.str.3 = private unnamed_addr constant [15 x i8] c"cannot open %s\00", align 1
@__const.evmc_load.prefix = private unnamed_addr constant [13 x i8] c"evmc_create_\00", align 1
@__const.evmc_load.lib_prefix = private unnamed_addr constant [4 x i8] c"lib\00", align 1
@.str.4 = private unnamed_addr constant [12 x i8] c"evmc_create\00", align 1
@.str.5 = private unnamed_addr constant [37 x i8] c"EVMC create function not found in %s\00", align 1

; Function Attrs: nounwind uwtable
define internal i32 @strcpy_sx(ptr noundef %0, i64 noundef %1, ptr noundef %2) #0 {
  %4 = alloca i32, align 4
  %5 = alloca ptr, align 8
  %6 = alloca i64, align 8
  %7 = alloca ptr, align 8
  %8 = alloca i64, align 8
  %9 = alloca i32, align 4
  store ptr %0, ptr %5, align 8, !tbaa !3
  store i64 %1, ptr %6, align 8, !tbaa !11
  store ptr %2, ptr %7, align 8, !tbaa !3
  call void @llvm.lifetime.start.p0(ptr %8) #7
  %10 = load ptr, ptr %7, align 8, !tbaa !3
  %11 = call i64 @strlen(ptr noundef %10) #8
  store i64 %11, ptr %8, align 8, !tbaa !11
  %12 = load i64, ptr %8, align 8, !tbaa !11
  %13 = load i64, ptr %6, align 8, !tbaa !11
  %14 = icmp uge i64 %12, %13
  br i1 %14, label %15, label %18

15:                                               ; preds = %3
  %16 = load ptr, ptr %5, align 8, !tbaa !3
  %17 = getelementptr inbounds i8, ptr %16, i64 0
  store i8 0, ptr %17, align 1, !tbaa !13
  store i32 1, ptr %4, align 4
  store i32 1, ptr %9, align 4
  br label %25

18:                                               ; preds = %3
  %19 = load ptr, ptr %5, align 8, !tbaa !3
  %20 = load ptr, ptr %7, align 8, !tbaa !3
  %21 = load i64, ptr %8, align 8, !tbaa !11
  call void @llvm.memcpy.p0.p0.i64(ptr align 1 %19, ptr align 1 %20, i64 %21, i1 false)
  %22 = load ptr, ptr %5, align 8, !tbaa !3
  %23 = load i64, ptr %8, align 8, !tbaa !11
  %24 = getelementptr inbounds nuw i8, ptr %22, i64 %23
  store i8 0, ptr %24, align 1, !tbaa !13
  store i32 0, ptr %4, align 4
  store i32 1, ptr %9, align 4
  br label %25

25:                                               ; preds = %18, %15
  call void @llvm.lifetime.end.p0(ptr %8) #7
  %26 = load i32, ptr %4, align 4
  ret i32 %26
}

; Function Attrs: nounwind uwtable
define ptr @evmc_load(ptr noundef %0, ptr noundef %1) #0 {
  %3 = alloca ptr, align 8
  %4 = alloca ptr, align 8
  %5 = alloca i32, align 4
  %6 = alloca ptr, align 8
  %7 = alloca i64, align 8
  %8 = alloca ptr, align 8
  %9 = alloca [13 x i8], align 1
  %10 = alloca i64, align 8
  %11 = alloca [4109 x i8], align 16
  %12 = alloca ptr, align 8
  %13 = alloca ptr, align 8
  %14 = alloca [4 x i8], align 1
  %15 = alloca i64, align 8
  %16 = alloca ptr, align 8
  %17 = alloca ptr, align 8
  %18 = alloca ptr, align 8
  store ptr %0, ptr %3, align 8, !tbaa !3
  store ptr %1, ptr %4, align 8, !tbaa !8
  store ptr null, ptr @last_error_msg, align 8, !tbaa !3
  call void @llvm.lifetime.start.p0(ptr %5) #7
  store i32 0, ptr %5, align 4, !tbaa !9
  call void @llvm.lifetime.start.p0(ptr %6) #7
  store ptr null, ptr %6, align 8, !tbaa !8
  %19 = load ptr, ptr %3, align 8, !tbaa !3
  %20 = icmp ne ptr %19, null
  br i1 %20, label %23, label %21

21:                                               ; preds = %2
  %22 = call i32 (i32, ptr, ...) @set_error(i32 noundef 3, ptr noundef @.str)
  store i32 %22, ptr %5, align 4, !tbaa !9
  br label %117

23:                                               ; preds = %2
  %24 = load ptr, ptr %3, align 8, !tbaa !3
  %25 = call i64 @strlen(ptr noundef %24) #8
  store i64 %25, ptr %7, align 8, !tbaa !11
  %26 = load i64, ptr %7, align 8, !tbaa !11
  %27 = icmp eq i64 %26, 0
  br i1 %27, label %28, label %30

28:                                               ; preds = %23
  %29 = call i32 (i32, ptr, ...) @set_error(i32 noundef 3, ptr noundef @.str.1)
  store i32 %29, ptr %5, align 4, !tbaa !9
  br label %117

30:                                               ; preds = %23
  %31 = load i64, ptr %7, align 8, !tbaa !11
  %32 = icmp ugt i64 %31, 4096
  br i1 %32, label %33, label %37

33:                                               ; preds = %30
  %34 = load i64, ptr %7, align 8, !tbaa !11
  %35 = trunc i64 %34 to i32
  %36 = call i32 (i32, ptr, ...) @set_error(i32 noundef 3, ptr noundef @.str.2, i32 noundef %35, i32 noundef 4096)
  store i32 %36, ptr %5, align 4, !tbaa !9
  br label %117

37:                                               ; preds = %30
  br label %38

38:                                               ; preds = %37
  %39 = load ptr, ptr %3, align 8, !tbaa !3
  %40 = call ptr @dlopen(ptr noundef %39, i32 noundef 1) #7
  store ptr %40, ptr %8, align 8, !tbaa !8
  %41 = load ptr, ptr %8, align 8, !tbaa !8
  %42 = icmp ne ptr %41, null
  br i1 %42, label %52, label %43

43:                                               ; preds = %38
  %44 = call ptr @dlerror() #7
  store ptr %44, ptr @last_error_msg, align 8, !tbaa !3
  %45 = load ptr, ptr @last_error_msg, align 8, !tbaa !3
  %46 = icmp ne ptr %45, null
  br i1 %46, label %47, label %48

47:                                               ; preds = %43
  store i32 1, ptr %5, align 4, !tbaa !9
  br label %51

48:                                               ; preds = %43
  %49 = load ptr, ptr %3, align 8, !tbaa !3
  %50 = call i32 (i32, ptr, ...) @set_error(i32 noundef 1, ptr noundef @.str.3, ptr noundef %49)
  store i32 %50, ptr %5, align 4, !tbaa !9
  br label %51

51:                                               ; preds = %48, %47
  br label %117

52:                                               ; preds = %38
  call void @llvm.memcpy.p0.p0.i64(ptr align 1 %9, ptr align 1 @__const.evmc_load.prefix, i64 13, i1 false)
  store i64 12, ptr %10, align 8, !tbaa !11
  %53 = getelementptr inbounds [4109 x i8], ptr %11, i64 0, i64 0
  %54 = getelementptr inbounds [13 x i8], ptr %9, i64 0, i64 0
  %55 = call i32 @strcpy_sx(ptr noundef %53, i64 noundef 4109, ptr noundef %54)
  %56 = load ptr, ptr %3, align 8, !tbaa !3
  %57 = call ptr @strrchr(ptr noundef %56, i32 noundef 47) #8
  store ptr %57, ptr %12, align 8, !tbaa !3
  %58 = load ptr, ptr %12, align 8, !tbaa !3
  %59 = icmp ne ptr %58, null
  br i1 %59, label %60, label %63

60:                                               ; preds = %52
  %61 = load ptr, ptr %12, align 8, !tbaa !3
  %62 = getelementptr inbounds i8, ptr %61, i64 1
  br label %65

63:                                               ; preds = %52
  %64 = load ptr, ptr %3, align 8, !tbaa !3
  br label %65

65:                                               ; preds = %63, %60
  %66 = phi ptr [ %62, %60 ], [ %64, %63 ]
  store ptr %66, ptr %13, align 8, !tbaa !3
  call void @llvm.memcpy.p0.p0.i64(ptr align 1 %14, ptr align 1 @__const.evmc_load.lib_prefix, i64 4, i1 false)
  store i64 3, ptr %15, align 8, !tbaa !11
  %67 = load ptr, ptr %13, align 8, !tbaa !3
  %68 = getelementptr inbounds [4 x i8], ptr %14, i64 0, i64 0
  %69 = call i32 @strncmp(ptr noundef %67, ptr noundef %68, i64 noundef 3) #8
  %70 = icmp eq i32 %69, 0
  br i1 %70, label %71, label %74

71:                                               ; preds = %65
  %72 = load ptr, ptr %13, align 8, !tbaa !3
  %73 = getelementptr inbounds nuw i8, ptr %72, i64 3
  store ptr %73, ptr %13, align 8, !tbaa !3
  br label %74

74:                                               ; preds = %71, %65
  %75 = getelementptr inbounds [4109 x i8], ptr %11, i64 0, i64 0
  %76 = getelementptr inbounds nuw i8, ptr %75, i64 12
  store ptr %76, ptr %16, align 8, !tbaa !3
  %77 = load ptr, ptr %16, align 8, !tbaa !3
  %78 = load ptr, ptr %13, align 8, !tbaa !3
  %79 = call i32 @strcpy_sx(ptr noundef %77, i64 noundef 4096, ptr noundef %78)
  %80 = getelementptr inbounds [4109 x i8], ptr %11, i64 0, i64 0
  %81 = call ptr @strchr(ptr noundef %80, i32 noundef 46) #8
  store ptr %81, ptr %17, align 8, !tbaa !3
  %82 = load ptr, ptr %17, align 8, !tbaa !3
  %83 = icmp ne ptr %82, null
  br i1 %83, label %84, label %86

84:                                               ; preds = %74
  %85 = load ptr, ptr %17, align 8, !tbaa !3
  store i8 0, ptr %85, align 1, !tbaa !13
  br label %86

86:                                               ; preds = %84, %74
  %87 = load ptr, ptr %16, align 8, !tbaa !3
  store ptr %87, ptr %18, align 8, !tbaa !3
  br label %88

88:                                               ; preds = %92, %86
  %89 = load ptr, ptr %18, align 8, !tbaa !3
  %90 = call ptr @strchr(ptr noundef %89, i32 noundef 45) #8
  store ptr %90, ptr %18, align 8, !tbaa !3
  %91 = icmp ne ptr %90, null
  br i1 %91, label %92, label %95

92:                                               ; preds = %88
  %93 = load ptr, ptr %18, align 8, !tbaa !3
  %94 = getelementptr inbounds nuw i8, ptr %93, i32 1
  store ptr %94, ptr %18, align 8, !tbaa !3
  store i8 95, ptr %93, align 1, !tbaa !13
  br label %88, !llvm.loop !14

95:                                               ; preds = %88
  %96 = load ptr, ptr %8, align 8, !tbaa !8
  %97 = getelementptr inbounds [4109 x i8], ptr %11, i64 0, i64 0
  %98 = call ptr @dlsym(ptr noundef %96, ptr noundef %97) #7
  %99 = ptrtoint ptr %98 to i64
  %100 = inttoptr i64 %99 to ptr
  store ptr %100, ptr %6, align 8, !tbaa !8
  %101 = load ptr, ptr %6, align 8, !tbaa !8
  %102 = icmp ne ptr %101, null
  br i1 %102, label %108, label %103

103:                                              ; preds = %95
  %104 = load ptr, ptr %8, align 8, !tbaa !8
  %105 = call ptr @dlsym(ptr noundef %104, ptr noundef @.str.4) #7
  %106 = ptrtoint ptr %105 to i64
  %107 = inttoptr i64 %106 to ptr
  store ptr %107, ptr %6, align 8, !tbaa !8
  br label %108

108:                                              ; preds = %103, %95
  %109 = load ptr, ptr %6, align 8, !tbaa !8
  %110 = icmp ne ptr %109, null
  br i1 %110, label %116, label %111

111:                                              ; preds = %108
  %112 = load ptr, ptr %8, align 8, !tbaa !8
  %113 = call i32 @dlclose(ptr noundef %112) #7
  %114 = load ptr, ptr %3, align 8, !tbaa !3
  %115 = call i32 (i32, ptr, ...) @set_error(i32 noundef 2, ptr noundef @.str.5, ptr noundef %114)
  store i32 %115, ptr %5, align 4, !tbaa !9
  br label %116

116:                                              ; preds = %111, %108
  br label %117

117:                                              ; preds = %116, %51, %33, %28, %21
  %118 = load ptr, ptr %4, align 8, !tbaa !8
  %119 = icmp ne ptr %118, null
  br i1 %119, label %120, label %123

120:                                              ; preds = %117
  %121 = load i32, ptr %5, align 4, !tbaa !9
  %122 = load ptr, ptr %4, align 8, !tbaa !8
  store i32 %121, ptr %122, align 4, !tbaa !9
  br label %123

123:                                              ; preds = %120, %117
  %124 = load ptr, ptr %6, align 8, !tbaa !8
  call void @llvm.lifetime.end.p0(ptr %6) #7
  call void @llvm.lifetime.end.p0(ptr %5) #7
  ret ptr %124
}