; Function Attrs: nounwind uwtable
define ptr @evmc_load(ptr noundef %0, ptr noundef writeonly captures(address_is_null) %1) local_unnamed_addr #0 {
  %3 = alloca [4109 x i8], align 16
  store ptr null, ptr @last_error_msg, align 8, !tbaa !3
  %.not = icmp eq ptr %0, null
  br i1 %.not, label %4, label %6

4:                                                ; preds = %2
  %5 = tail call i32 (i32, ptr, ...) @set_error(i32 noundef 3, ptr noundef nonnull @.str)
  br label %.thread

6:                                                ; preds = %2
  %7 = tail call i64 @strlen(ptr noundef nonnull dereferenceable(1) %0) #9
  %8 = icmp eq i64 %7, 0
  br i1 %8, label %9, label %11

9:                                                ; preds = %6
  %10 = tail call i32 (i32, ptr, ...) @set_error(i32 noundef 3, ptr noundef nonnull @.str.1)
  br label %.thread

11:                                               ; preds = %6
  %12 = icmp ugt i64 %7, 4096
  br i1 %12, label %13, label %16

13:                                               ; preds = %11
  %14 = trunc i64 %7 to i32
  %15 = tail call i32 (i32, ptr, ...) @set_error(i32 noundef 3, ptr noundef nonnull @.str.2, i32 noundef %14, i32 noundef 4096)
  br label %.thread

16:                                               ; preds = %11
  %17 = tail call ptr @dlopen(ptr noundef nonnull %0, i32 noundef 1) #10
  %.not40 = icmp eq ptr %17, null
  br i1 %.not40, label %18, label %strcpy_sx.exit

18:                                               ; preds = %16
  %19 = tail call ptr @dlerror() #10
  store ptr %19, ptr @last_error_msg, align 8, !tbaa !3
  %.not41 = icmp eq ptr %19, null
  br i1 %.not41, label %20, label %.thread

20:                                               ; preds = %18
  %21 = tail call i32 (i32, ptr, ...) @set_error(i32 noundef 1, ptr noundef nonnull @.str.3, ptr noundef nonnull %0)
  br label %.thread

strcpy_sx.exit:                                   ; preds = %16
  call void @llvm.memcpy.p0.p0.i64(ptr noundef nonnull align 16 dereferenceable(12) %3, ptr noundef nonnull readonly align 1 dereferenceable(12) @__const.evmc_load.prefix, i64 12, i1 false)
  %22 = getelementptr inbounds nuw i8, ptr %3, i64 12
  store i8 0, ptr %22, align 4, !tbaa !8
  %23 = tail call ptr @strrchr(ptr noundef nonnull dereferenceable(1) %0, i32 noundef 47) #9
  %.not42 = icmp eq ptr %23, null
  %24 = getelementptr inbounds nuw i8, ptr %23, i64 1
  %25 = select i1 %.not42, ptr %0, ptr %24
  %26 = load i8, ptr %25, align 1
  %.not54 = icmp eq i8 %26, 108
  br i1 %.not54, label %sub_1, label %strcpy_sx.exit.tail

sub_1:                                            ; preds = %strcpy_sx.exit
  %27 = getelementptr inbounds nuw i8, ptr %25, i64 1
  %28 = load i8, ptr %27, align 1
  %.not55 = icmp eq i8 %28, 105
  br i1 %.not55, label %sub_2, label %strcpy_sx.exit.tail

sub_2:                                            ; preds = %sub_1
  %29 = getelementptr inbounds nuw i8, ptr %25, i64 2
  %30 = load i8, ptr %29, align 1
  %31 = icmp eq i8 %30, 98
  %32 = select i1 %31, i64 3, i64 0
  br label %strcpy_sx.exit.tail

strcpy_sx.exit.tail:                              ; preds = %strcpy_sx.exit, %sub_1, %sub_2
  %spec.select.idx = phi i64 [ 0, %strcpy_sx.exit ], [ 0, %sub_1 ], [ %32, %sub_2 ]
  %spec.select = getelementptr inbounds nuw i8, ptr %25, i64 %spec.select.idx
  %33 = tail call i64 @strlen(ptr noundef nonnull readonly dereferenceable(1) %spec.select) #9
  %.not.i48 = icmp ult i64 %33, 4096
  br i1 %.not.i48, label %34, label %strcpy_sx.exit50

34:                                               ; preds = %strcpy_sx.exit.tail
  call void @llvm.memcpy.p0.p0.i64(ptr nonnull align 4 %22, ptr nonnull readonly align 1 %spec.select, i64 %33, i1 false)
  %35 = getelementptr inbounds nuw i8, ptr %22, i64 %33
  store i8 0, ptr %35, align 1, !tbaa !8
  br label %strcpy_sx.exit50

strcpy_sx.exit50:                                 ; preds = %strcpy_sx.exit.tail, %34
  %36 = call ptr @strchr(ptr noundef nonnull dereferenceable(1) %3, i32 noundef 46) #9
  %.not43 = icmp eq ptr %36, null
  br i1 %.not43, label %38, label %37

37:                                               ; preds = %strcpy_sx.exit50
  store i8 0, ptr %36, align 1, !tbaa !8
  br label %38

38:                                               ; preds = %37, %strcpy_sx.exit50
  %39 = call ptr @strchr(ptr noundef nonnull dereferenceable(1) %22, i32 noundef 45) #9
  %.not4453 = icmp eq ptr %39, null
  br i1 %.not4453, label %._crit_edge, label %.lr.ph

.lr.ph:                                           ; preds = %38, %.lr.ph
  %40 = phi ptr [ %42, %.lr.ph ], [ %39, %38 ]
  %41 = getelementptr inbounds nuw i8, ptr %40, i64 1
  store i8 95, ptr %40, align 1, !tbaa !8
  %42 = call ptr @strchr(ptr noundef nonnull dereferenceable(1) %41, i32 noundef 45) #9
  %.not44 = icmp eq ptr %42, null
  br i1 %.not44, label %._crit_edge, label %.lr.ph, !llvm.loop !9

._crit_edge:                                      ; preds = %.lr.ph, %38
  %43 = call ptr @dlsym(ptr noundef nonnull %17, ptr noundef nonnull %3) #10
  %.not45 = icmp eq ptr %43, null
  br i1 %.not45, label %44, label %.thread

44:                                               ; preds = %._crit_edge
  %45 = call ptr @dlsym(ptr noundef nonnull %17, ptr noundef nonnull @.str.4) #10
  %.not46 = icmp eq ptr %45, null
  br i1 %.not46, label %46, label %.thread

46:                                               ; preds = %44
  %47 = call i32 @dlclose(ptr noundef nonnull %17) #10
  %48 = call i32 (i32, ptr, ...) @set_error(i32 noundef 2, ptr noundef nonnull @.str.5, ptr noundef nonnull %0)
  br label %.thread

.thread:                                          ; preds = %._crit_edge, %18, %44, %46, %20, %13, %9, %4
  %.031 = phi ptr [ null, %9 ], [ null, %13 ], [ %45, %44 ], [ null, %46 ], [ null, %20 ], [ null, %4 ], [ null, %18 ], [ %43, %._crit_edge ]
  %.030 = phi i32 [ 3, %9 ], [ 3, %13 ], [ 0, %44 ], [ 2, %46 ], [ 1, %20 ], [ 3, %4 ], [ 1, %18 ], [ 0, %._crit_edge ]
  %.not47 = icmp eq ptr %1, null
  br i1 %.not47, label %50, label %49

49:                                               ; preds = %.thread
  store i32 %.030, ptr %1, align 4, !tbaa !11
  br label %50

50:                                               ; preds = %49, %.thread
  ret ptr %.031
}